target datalayout = "e-m:e-p270:32:32-p271:32:32-p272:64:64-i64:64-i128:128-f80:128-n8:16:32:64-S128"
target triple = "x86_64-pc-linux-gnu"

%struct.SDL_DriverXbox360W_Context = type { ptr, i8, i32, i8, [64 x i8] }
%struct.SDL_HIDAPI_Device = type { ptr, ptr, ptr, ptr, i16, i16, i16, ptr, %struct.SDL_GUID, i32, i32, i32, i32, i16, i16, i8, i32, i32, i32, ptr, ptr, ptr, ptr, %struct.SDL_AtomicInt, i32, ptr, i8, i8, i8, ptr, i32, ptr, ptr }
%struct.SDL_GUID = type { [16 x i8] }
%struct.SDL_AtomicInt = type { i32 }

@__const.SetSlotLED.led_packet = private unnamed_addr constant <{ i8, i8, i8, [9 x i8] }> <{ i8 0, i8 0, i8 8, [9 x i8] zeroinitializer }>, align 1

; Function Attrs: nounwind uwtable
define internal zeroext i1 @SetSlotLED(ptr noundef %0, i8 noundef zeroext %1, i1 noundef zeroext %2) #0 {
  %4 = alloca i1, align 1
  %5 = alloca ptr, align 8
  %6 = alloca i8, align 1
  %7 = alloca i8, align 1
  %8 = alloca i8, align 1
  %9 = alloca i8, align 1
  %10 = alloca [12 x i8], align 1
  %11 = alloca i32, align 4
  store ptr %0, ptr %5, align 8
  store i8 %1, ptr %6, align 1
  %12 = zext i1 %2 to i8
  store i8 %12, ptr %7, align 1
  call void @llvm.lifetime.start.p0(i64 1, ptr %8) #6
  store i8 0, ptr %8, align 1
  call void @llvm.lifetime.start.p0(i64 1, ptr %9) #6
  %13 = load i8, ptr %7, align 1, !range !3, !noundef !4
  %14 = trunc i8 %13 to i1
  br i1 %14, label %15, label %19

15:                                               ; preds = %3
  %16 = load i8, ptr %6, align 1
  %17 = zext i8 %16 to i32
  %18 = add nsw i32 6, %17
  br label %20

19:                                               ; preds = %3
  br label %20

20:                                               ; preds = %19, %15
  %21 = phi i32 [ %18, %15 ], [ 0, %19 ]
  %22 = trunc i32 %21 to i8
  store i8 %22, ptr %9, align 1
  call void @llvm.lifetime.start.p0(i64 12, ptr %10) #6
  call void @llvm.memcpy.p0.p0.i64(ptr align 1 %10, ptr align 1 @__const.SetSlotLED.led_packet, i64 12, i1 false)
  %23 = load i8, ptr %9, align 1
  %24 = zext i8 %23 to i32
  %25 = srem i32 %24, 14
  %26 = add nsw i32 64, %25
  %27 = trunc i32 %26 to i8
  %28 = getelementptr inbounds [12 x i8], ptr %10, i64 0, i64 3
  store i8 %27, ptr %28, align 1
  %29 = load ptr, ptr %5, align 8
  %30 = getelementptr inbounds [12 x i8], ptr %10, i64 0, i64 0
  %31 = call i32 @SDL_hid_write_REAL(ptr noundef %29, ptr noundef %30, i64 noundef 12)
  %32 = sext i32 %31 to i64
  %33 = icmp ne i64 %32, 12
  br i1 %33, label %34, label %35

34:                                               ; preds = %20
  store i1 false, ptr %4, align 1
  store i32 1, ptr %11, align 4
  br label %36

35:                                               ; preds = %20
  store i1 true, ptr %4, align 1
  store i32 1, ptr %11, align 4
  br label %36

36:                                               ; preds = %35, %34
  call void @llvm.lifetime.end.p0(i64 12, ptr %10) #6
  call void @llvm.lifetime.end.p0(i64 1, ptr %9) #6
  call void @llvm.lifetime.end.p0(i64 1, ptr %8) #6
  %37 = load i1, ptr %4, align 1
  ret i1 %37
}

; Function Attrs: nounwind uwtable
define internal void @UpdateSlotLED(ptr noundef %0) #0 {
  %2 = alloca ptr, align 8
  store ptr %0, ptr %2, align 8
  %3 = load ptr, ptr %2, align 8
  %4 = getelementptr inbounds nuw %struct.SDL_DriverXbox360W_Context, ptr %3, i32 0, i32 3
  %5 = load i8, ptr %4, align 8, !range !3, !noundef !4
  %6 = trunc i8 %5 to i1
  br i1 %6, label %7, label %24

7:                                                ; preds = %1
  %8 = load ptr, ptr %2, align 8
  %9 = getelementptr inbounds nuw %struct.SDL_DriverXbox360W_Context, ptr %8, i32 0, i32 2
  %10 = load i32, ptr %9, align 4
  %11 = icmp sge i32 %10, 0
  br i1 %11, label %12, label %24

12:                                               ; preds = %7
  %13 = load ptr, ptr %2, align 8
  %14 = getelementptr inbounds nuw %struct.SDL_DriverXbox360W_Context, ptr %13, i32 0, i32 0
  %15 = load ptr, ptr %14, align 8
  %16 = getelementptr inbounds nuw %struct.SDL_HIDAPI_Device, ptr %15, i32 0, i32 22
  %17 = load ptr, ptr %16, align 8
  %18 = load ptr, ptr %2, align 8
  %19 = getelementptr inbounds nuw %struct.SDL_DriverXbox360W_Context, ptr %18, i32 0, i32 2
  %20 = load i32, ptr %19, align 4
  %21 = srem i32 %20, 4
  %22 = trunc i32 %21 to i8
  %23 = call zeroext i1 @SetSlotLED(ptr noundef %17, i8 noundef zeroext %22, i1 noundef zeroext true)
  br label %31

24:                                               ; preds = %7, %1
  %25 = load ptr, ptr %2, align 8
  %26 = getelementptr inbounds nuw %struct.SDL_DriverXbox360W_Context, ptr %25, i32 0, i32 0
  %27 = load ptr, ptr %26, align 8
  %28 = getelementptr inbounds nuw %struct.SDL_HIDAPI_Device, ptr %27, i32 0, i32 22
  %29 = load ptr, ptr %28, align 8
  %30 = call zeroext i1 @SetSlotLED(ptr noundef %29, i8 noundef zeroext 0, i1 noundef zeroext false)
  br label %31

31:                                               ; preds = %24, %12
  ret void
}

; Function Attrs: nounwind uwtable
define internal void @HIDAPI_DriverXbox360W_SetDevicePlayerIndex(ptr noundef %0, i32 noundef %1, i32 noundef %2) #0 {
  %4 = alloca ptr, align 8
  %5 = alloca i32, align 4
  %6 = alloca i32, align 4
  %7 = alloca ptr, align 8
  %8 = alloca i32, align 4
  store ptr %0, ptr %4, align 8
  store i32 %1, ptr %5, align 4
  store i32 %2, ptr %6, align 4
  call void @llvm.lifetime.start.p0(i64 8, ptr %7) #6
  %9 = load ptr, ptr %4, align 8
  %10 = getelementptr inbounds nuw %struct.SDL_HIDAPI_Device, ptr %9, i32 0, i32 20
  %11 = load ptr, ptr %10, align 8
  store ptr %11, ptr %7, align 8
  %12 = load ptr, ptr %7, align 8
  %13 = icmp ne ptr %12, null
  br i1 %13, label %15, label %14

14:                                               ; preds = %3
  store i32 1, ptr %8, align 4
  br label %20

15:                                               ; preds = %3
  %16 = load i32, ptr %6, align 4
  %17 = load ptr, ptr %7, align 8
  %18 = getelementptr inbounds nuw %struct.SDL_DriverXbox360W_Context, ptr %17, i32 0, i32 2
  store i32 %16, ptr %18, align 4
  %19 = load ptr, ptr %7, align 8
  call void @UpdateSlotLED(ptr noundef %19)
  store i32 0, ptr %8, align 4
  br label %20

20:                                               ; preds = %15, %14
  call void @llvm.lifetime.end.p0(i64 8, ptr %7) #6
  %21 = load i32, ptr %8, align 4
  switch i32 %21, label %23 [
    i32 0, label %22
    i32 1, label %22
  ]

22:                                               ; preds = %20, %20
  ret void

23:                                               ; preds = %20
  unreachable
}