; Function Attrs: nounwind uwtable
define internal void @HIDAPI_DriverXbox360W_SetDevicePlayerIndex(ptr noundef readonly captures(none) %0, i32 %1, i32 noundef %2) #0 {
  %4 = alloca [12 x i8], align 1
  %5 = alloca [12 x i8], align 1
  %6 = getelementptr inbounds nuw i8, ptr %0, i64 112
  %7 = load ptr, ptr %6, align 8
  %.not = icmp eq ptr %7, null
  br i1 %.not, label %UpdateSlotLED.exit, label %8

8:                                                ; preds = %3
  %9 = getelementptr inbounds nuw i8, ptr %7, i64 12
  store i32 %2, ptr %9, align 4
  %10 = getelementptr inbounds nuw i8, ptr %7, i64 16
  %11 = load i8, ptr %10, align 8, !range !3, !noundef !4
  %12 = trunc nuw i8 %11 to i1
  %13 = icmp sgt i32 %2, -1
  %or.cond = and i1 %13, %12
  %14 = load ptr, ptr %7, align 8
  %15 = getelementptr inbounds nuw i8, ptr %14, i64 128
  %16 = load ptr, ptr %15, align 8
  br i1 %or.cond, label %17, label %23

17:                                               ; preds = %8
  %18 = trunc i32 %2 to i8
  %19 = and i8 %18, 3
  call void @llvm.lifetime.start.p0(i64 12, ptr nonnull %5) #8
  call void @llvm.memcpy.p0.p0.i64(ptr noundef nonnull align 1 dereferenceable(12) %5, ptr noundef nonnull align 1 dereferenceable(12) @__const.SetSlotLED.led_packet, i64 12, i1 false)
  %20 = add nuw nsw i8 %19, 70
  %21 = getelementptr inbounds nuw i8, ptr %5, i64 3
  store i8 %20, ptr %21, align 1
  %22 = call i32 @SDL_hid_write_REAL(ptr noundef %16, ptr noundef nonnull %5, i64 noundef 12) #8
  call void @llvm.lifetime.end.p0(i64 12, ptr nonnull %5) #8
  br label %UpdateSlotLED.exit

23:                                               ; preds = %8
  call void @llvm.lifetime.start.p0(i64 12, ptr nonnull %4) #8
  call void @llvm.memcpy.p0.p0.i64(ptr noundef nonnull align 1 dereferenceable(12) %4, ptr noundef nonnull align 1 dereferenceable(12) @__const.SetSlotLED.led_packet, i64 12, i1 false)
  %24 = getelementptr inbounds nuw i8, ptr %4, i64 3
  store i8 64, ptr %24, align 1
  %25 = call i32 @SDL_hid_write_REAL(ptr noundef %16, ptr noundef nonnull %4, i64 noundef 12) #8
  call void @llvm.lifetime.end.p0(i64 12, ptr nonnull %4) #8
  br label %UpdateSlotLED.exit

UpdateSlotLED.exit:                               ; preds = %23, %17, %3
  ret void
}